; ModuleID = '19/98.c'
source_filename = "19/98.c"
target datalayout = "e-m:e-p270:32:32-p271:32:32-p272:64:64-i64:64-f80:128-n8:16:32:64-S128"
target triple = "x86_64-pc-linux-gnu"

@.str = private unnamed_addr constant [3 x i8] c"%s\00", align 1

; Function Attrs: noinline nounwind uwtable
define dso_local i32 @main() #0 {
  %1 = alloca i32, align 4
  %2 = alloca i32, align 4
  %3 = alloca i32, align 4
  %4 = alloca i32, align 4
  %5 = alloca i32, align 4
  %6 = alloca i32, align 4
  %7 = alloca i32, align 4
  %8 = alloca i32, align 4
  %9 = alloca [100 x i8], align 16
  %10 = alloca [100 x i8], align 16
  %11 = alloca [100 x i8], align 16
  %12 = alloca [100 x i8], align 16
  %13 = alloca [100 x i8], align 16
  %14 = alloca [100 x i8], align 16
  %15 = alloca [100 x i8], align 16
  %16 = alloca [100 x i8], align 16
  store i32 0, i32* %1, align 4
  %17 = getelementptr inbounds [100 x i8], [100 x i8]* %9, i64 0, i64 0
  %18 = call i32 (i8*, ...) bitcast (i32 (...)* @gets to i32 (i8*, ...)*)(i8* %17)
  %19 = getelementptr inbounds [100 x i8], [100 x i8]* %10, i64 0, i64 0
  %20 = call i32 (i8*, ...) bitcast (i32 (...)* @gets to i32 (i8*, ...)*)(i8* %19)
  %21 = getelementptr inbounds [100 x i8], [100 x i8]* %11, i64 0, i64 0
  %22 = call i32 (i8*, ...) bitcast (i32 (...)* @gets to i32 (i8*, ...)*)(i8* %21)
  %23 = getelementptr inbounds [100 x i8], [100 x i8]* %10, i64 0, i64 0
  %24 = call i64 @strlen(i8* %23) #4
  %25 = trunc i64 %24 to i32
  store i32 %25, i32* %3, align 4
  %26 = getelementptr inbounds [100 x i8], [100 x i8]* %9, i64 0, i64 0
  %27 = call i64 @strlen(i8* %26) #4
  %28 = trunc i64 %27 to i32
  store i32 %28, i32* %4, align 4
  %29 = getelementptr inbounds [100 x i8], [100 x i8]* %11, i64 0, i64 0
  %30 = call i64 @strlen(i8* %29) #4
  %31 = trunc i64 %30 to i32
  store i32 %31, i32* %8, align 4
  store i32 0, i32* %2, align 4
  br label %32

32:                                               ; preds = %159, %0
  %33 = load i32, i32* %2, align 4
  %34 = load i32, i32* %4, align 4
  %35 = icmp slt i32 %33, %34
  br i1 %35, label %36, label %162

36:                                               ; preds = %32
  store i32 0, i32* %5, align 4
  br label %37

37:                                               ; preds = %51, %36
  %38 = load i32, i32* %5, align 4
  %39 = load i32, i32* %3, align 4
  %40 = icmp slt i32 %38, %39
  br i1 %40, label %41, label %54

41:                                               ; preds = %37
  %42 = load i32, i32* %2, align 4
  %43 = load i32, i32* %5, align 4
  %44 = add nsw i32 %42, %43
  %45 = sext i32 %44 to i64
  %46 = getelementptr inbounds [100 x i8], [100 x i8]* %9, i64 0, i64 %45
  %47 = load i8, i8* %46, align 1
  %48 = load i32, i32* %5, align 4
  %49 = sext i32 %48 to i64
  %50 = getelementptr inbounds [100 x i8], [100 x i8]* %12, i64 0, i64 %49
  store i8 %47, i8* %50, align 1
  br label %51

51:                                               ; preds = %41
  %52 = load i32, i32* %5, align 4
  %53 = add nsw i32 %52, 1
  store i32 %53, i32* %5, align 4
  br label %37

54:                                               ; preds = %37
  %55 = load i32, i32* %3, align 4
  %56 = sext i32 %55 to i64
  %57 = getelementptr inbounds [100 x i8], [100 x i8]* %12, i64 0, i64 %56
  store i8 0, i8* %57, align 1
  %58 = getelementptr inbounds [100 x i8], [100 x i8]* %12, i64 0, i64 0
  %59 = getelementptr inbounds [100 x i8], [100 x i8]* %10, i64 0, i64 0
  %60 = call i32 @strcmp(i8* %58, i8* %59) #4
  %61 = icmp eq i32 %60, 0
  br i1 %61, label %62, label %158

62:                                               ; preds = %54
  %63 = load i32, i32* %2, align 4
  %64 = icmp eq i32 %63, 0
  br i1 %64, label %65, label %72

65:                                               ; preds = %62
  %66 = load i32, i32* %3, align 4
  %67 = sext i32 %66 to i64
  %68 = getelementptr inbounds [100 x i8], [100 x i8]* %9, i64 0, i64 %67
  %69 = load i8, i8* %68, align 1
  %70 = sext i8 %69 to i32
  %71 = icmp eq i32 %70, 32
  br i1 %71, label %89, label %72

72:                                               ; preds = %65, %62
  %73 = load i32, i32* %2, align 4
  %74 = sub nsw i32 %73, 1
  %75 = sext i32 %74 to i64
  %76 = getelementptr inbounds [100 x i8], [100 x i8]* %9, i64 0, i64 %75
  %77 = load i8, i8* %76, align 1
  %78 = sext i8 %77 to i32
  %79 = icmp eq i32 %78, 32
  br i1 %79, label %80, label %157

80:                                               ; preds = %72
  %81 = load i32, i32* %3, align 4
  %82 = load i32, i32* %2, align 4
  %83 = add nsw i32 %81, %82
  %84 = sext i32 %83 to i64
  %85 = getelementptr inbounds [100 x i8], [100 x i8]* %9, i64 0, i64 %84
  %86 = load i8, i8* %85, align 1
  %87 = sext i8 %86 to i32
  %88 = icmp eq i32 %87, 32
  br i1 %88, label %89, label %157

89:                                               ; preds = %80, %65
  store i32 0, i32* %6, align 4
  br label %90

90:                                               ; preds = %110, %89
  %91 = load i32, i32* %6, align 4
  %92 = load i32, i32* %4, align 4
  %93 = load i32, i32* %2, align 4
  %94 = sub nsw i32 %92, %93
  %95 = load i32, i32* %3, align 4
  %96 = sub nsw i32 %94, %95
  %97 = icmp slt i32 %91, %96
  br i1 %97, label %98, label %113

98:                                               ; preds = %90
  %99 = load i32, i32* %6, align 4
  %100 = load i32, i32* %3, align 4
  %101 = add nsw i32 %99, %100
  %102 = load i32, i32* %2, align 4
  %103 = add nsw i32 %101, %102
  %104 = sext i32 %103 to i64
  %105 = getelementptr inbounds [100 x i8], [100 x i8]* %9, i64 0, i64 %104
  %106 = load i8, i8* %105, align 1
  %107 = load i32, i32* %6, align 4
  %108 = sext i32 %107 to i64
  %109 = getelementptr inbounds [100 x i8], [100 x i8]* %13, i64 0, i64 %108
  store i8 %106, i8* %109, align 1
  br label %110

110:                                              ; preds = %98
  %111 = load i32, i32* %6, align 4
  %112 = add nsw i32 %111, 1
  store i32 %112, i32* %6, align 4
  br label %90

113:                                              ; preds = %90
  %114 = load i32, i32* %4, align 4
  %115 = load i32, i32* %2, align 4
  %116 = sub nsw i32 %114, %115
  %117 = load i32, i32* %3, align 4
  %118 = sub nsw i32 %116, %117
  %119 = sext i32 %118 to i64
  %120 = getelementptr inbounds [100 x i8], [100 x i8]* %13, i64 0, i64 %119
  store i8 0, i8* %120, align 1
  store i32 0, i32* %7, align 4
  br label %121

121:                                              ; preds = %133, %113
  %122 = load i32, i32* %7, align 4
  %123 = load i32, i32* %2, align 4
  %124 = icmp slt i32 %122, %123
  br i1 %124, label %125, label %136

125:                                              ; preds = %121
  %126 = load i32, i32* %7, align 4
  %127 = sext i32 %126 to i64
  %128 = getelementptr inbounds [100 x i8], [100 x i8]* %9, i64 0, i64 %127
  %129 = load i8, i8* %128, align 1
  %130 = load i32, i32* %7, align 4
  %131 = sext i32 %130 to i64
  %132 = getelementptr inbounds [100 x i8], [100 x i8]* %14, i64 0, i64 %131
  store i8 %129, i8* %132, align 1
  br label %133

133:                                              ; preds = %125
  %134 = load i32, i32* %7, align 4
  %135 = add nsw i32 %134, 1
  store i32 %135, i32* %7, align 4
  br label %121

136:                                              ; preds = %121
  %137 = load i32, i32* %2, align 4
  %138 = sext i32 %137 to i64
  %139 = getelementptr inbounds [100 x i8], [100 x i8]* %14, i64 0, i64 %138
  store i8 0, i8* %139, align 1
  %140 = getelementptr inbounds [100 x i8], [100 x i8]* %14, i64 0, i64 0
  %141 = getelementptr inbounds [100 x i8], [100 x i8]* %11, i64 0, i64 0
  %142 = call i8* @strcat(i8* %140, i8* %141) #5
  %143 = getelementptr inbounds [100 x i8], [100 x i8]* %14, i64 0, i64 0
  %144 = getelementptr inbounds [100 x i8], [100 x i8]* %13, i64 0, i64 0
  %145 = call i8* @strcat(i8* %143, i8* %144) #5
  %146 = getelementptr inbounds [100 x i8], [100 x i8]* %9, i64 0, i64 0
  %147 = getelementptr inbounds [100 x i8], [100 x i8]* %14, i64 0, i64 0
  %148 = call i8* @strcpy(i8* %146, i8* %147) #5
  %149 = getelementptr inbounds [100 x i8], [100 x i8]* %9, i64 0, i64 0
  %150 = call i64 @strlen(i8* %149) #4
  %151 = trunc i64 %150 to i32
  store i32 %151, i32* %4, align 4
  %152 = load i32, i32* %2, align 4
  %153 = load i32, i32* %8, align 4
  %154 = add nsw i32 %152, %153
  %155 = load i32, i32* %3, align 4
  %156 = sub nsw i32 %154, %155
  store i32 %156, i32* %2, align 4
  br label %157

157:                                              ; preds = %136, %80, %72
  br label %158

158:                                              ; preds = %157, %54
  br label %159

159:                                              ; preds = %158
  %160 = load i32, i32* %2, align 4
  %161 = add nsw i32 %160, 1
  store i32 %161, i32* %2, align 4
  br label %32

162:                                              ; preds = %32
  %163 = getelementptr inbounds [100 x i8], [100 x i8]* %9, i64 0, i64 0
  %164 = call i32 (i8*, ...) @printf(i8* getelementptr inbounds ([3 x i8], [3 x i8]* @.str, i64 0, i64 0), i8* %163)
  ret i32 0
}

declare dso_local i32 @gets(...) #1

; Function Attrs: nounwind readonly
declare dso_local i64 @strlen(i8*) #2

; Function Attrs: nounwind readonly
declare dso_local i32 @strcmp(i8*, i8*) #2

; Function Attrs: nounwind
declare dso_local i8* @strcat(i8*, i8*) #3

; Function Attrs: nounwind
declare dso_local i8* @strcpy(i8*, i8*) #3

declare dso_local i32 @printf(i8*, ...) #1


!llvm.module.flags = !{!0}
!llvm.ident = !{!1}

!0 = !{i32 1, !"wchar_size", i32 4}
!1 = !{!"clang version 10.0.0-4ubuntu1 "}
